target datalayout = "e-m:e-p270:32:32-p271:32:32-p272:64:64-i64:64-i128:128-f80:128-n8:16:32:64-S128"
target triple = "x86_64-pc-linux-gnu"

%struct._value_string = type { i32, ptr }
%struct._packet_info = type { ptr, ptr, i32, i32, %struct.nstime_t, %struct.nstime_t, %struct.nstime_t, i8, ptr, ptr, ptr, ptr, %struct._address, %struct._address, %struct._address, %struct._address, %struct._address, %struct._address, i32, ptr, i8, [3 x i8], %struct.anon, i32, i32, i32, i32, ptr, i8, ptr, ptr, i16, i16, i32, i32, i16, i32, i32, ptr, ptr, ptr, i8, i8, i16, i16, i16, i32, i16, i16, ptr, ptr, ptr, ptr, ptr, i32, i32 }
%struct.nstime_t = type { i64, i32 }
%struct._address = type { i32, i32, ptr, ptr }
%struct.anon = type { i8, [3 x i8] }
%struct.cip_simple_request_info = type { i32, i32, i32, i32, i32, i32, i32, i32, i8 }

@hf_cip_reqrsp = internal global i32 0, align 4
@cip_sc_rr = external constant [0 x %struct._value_string], align 8
@hf_cip_data = internal global i32 0, align 4
@hf_cip_svalidator_sc = internal global i32 0, align 4
@ett_ssupervisor_cmd_data = internal global i32 0, align 4
@ett_cip_class_s_validator = internal global i32 0, align 4
@ett_svalidator_rrsc = internal global i32 0, align 4
@proto_cip_class_s_validator = internal global i32 0, align 4
@.str.531 = private unnamed_addr constant [10 x i8] c"Service: \00", align 1
@.str.532 = private unnamed_addr constant [8 x i8] c"%s (%s)\00", align 1
@.str.533 = private unnamed_addr constant [25 x i8] c"Unknown Service (0x%02x)\00", align 1
@.str.534 = private unnamed_addr constant [1 x i8] zeroinitializer, align 1
@.str.535 = private unnamed_addr constant [22 x i8] c"Command Specific Data\00", align 1
@.str.537 = private unnamed_addr constant [15 x i8] c"CIPS Validator\00", align 1

; Function Attrs: null_pointer_is_valid sspstrong uwtable
define internal void @dissect_cip_s_validator_data(ptr noundef %0, ptr noundef %1, i32 noundef %2, i32 noundef %3, ptr noundef %4) #0 {
  %6 = alloca ptr, align 8
  %7 = alloca ptr, align 8
  %8 = alloca i32, align 4
  %9 = alloca i32, align 4
  %10 = alloca ptr, align 8
  %11 = alloca ptr, align 8
  %12 = alloca ptr, align 8
  %13 = alloca ptr, align 8
  %14 = alloca ptr, align 8
  %15 = alloca i32, align 4
  %16 = alloca i8, align 1
  %17 = alloca i8, align 1
  %18 = alloca i8, align 1
  %19 = alloca %struct.cip_simple_request_info, align 4
  store ptr %0, ptr %6, align 8
  store ptr %1, ptr %7, align 8
  store i32 %2, ptr %8, align 4
  store i32 %3, ptr %9, align 4
  store ptr %4, ptr %10, align 8
  call void @llvm.lifetime.start.p0(i64 8, ptr %11) #11
  call void @llvm.lifetime.start.p0(i64 8, ptr %12) #11
  call void @llvm.lifetime.start.p0(i64 8, ptr %13) #11
  call void @llvm.lifetime.start.p0(i64 8, ptr %14) #11
  call void @llvm.lifetime.start.p0(i64 4, ptr %15) #11
  call void @llvm.lifetime.start.p0(i64 1, ptr %16) #11
  call void @llvm.lifetime.start.p0(i64 1, ptr %17) #11
  call void @llvm.lifetime.start.p0(i64 1, ptr %18) #11
  call void @llvm.lifetime.start.p0(i64 36, ptr %19) #11
  %20 = load ptr, ptr %10, align 8
  %21 = getelementptr inbounds nuw %struct._packet_info, ptr %20, i32 0, i32 1
  %22 = load ptr, ptr %21, align 8
  call void @col_set_str(ptr noundef %22, i32 noundef 35, ptr noundef @.str.537)
  %23 = load ptr, ptr %7, align 8
  %24 = load i32, ptr %8, align 4
  %25 = call zeroext i8 @tvb_get_uint8(ptr noundef %23, i32 noundef %24)
  store i8 %25, ptr %16, align 1
  %26 = load ptr, ptr %6, align 8
  %27 = load ptr, ptr %7, align 8
  %28 = load i32, ptr %8, align 4
  %29 = load i32, ptr @ett_svalidator_rrsc, align 4
  %30 = call ptr @proto_tree_add_subtree(ptr noundef %26, ptr noundef %27, i32 noundef %28, i32 noundef 1, i32 noundef %29, ptr noundef %12, ptr noundef @.str.531)
  store ptr %30, ptr %13, align 8
  %31 = load ptr, ptr %13, align 8
  %32 = load i32, ptr @hf_cip_reqrsp, align 4
  %33 = load ptr, ptr %7, align 8
  %34 = load i32, ptr %8, align 4
  %35 = call ptr @proto_tree_add_item(ptr noundef %31, i32 noundef %32, ptr noundef %33, i32 noundef %34, i32 noundef 1, i32 noundef -2147483648)
  %36 = load ptr, ptr %12, align 8
  %37 = load i8, ptr %16, align 1
  %38 = zext i8 %37 to i32
  %39 = and i32 %38, 127
  %40 = call ptr @val_to_str(i32 noundef %39, ptr noundef @cip_sc_vals_svalidator, ptr noundef @.str.533)
  %41 = load i8, ptr %16, align 1
  %42 = zext i8 %41 to i32
  %43 = and i32 %42, 128
  %44 = ashr i32 %43, 7
  %45 = call ptr @val_to_str_const(i32 noundef %44, ptr noundef @cip_sc_rr, ptr noundef @.str.534)
  call void (ptr, ptr, ...) @proto_item_append_text(ptr noundef %36, ptr noundef @.str.532, ptr noundef %40, ptr noundef %45)
  %46 = load ptr, ptr %13, align 8
  %47 = load i32, ptr @hf_cip_svalidator_sc, align 4
  %48 = load ptr, ptr %7, align 8
  %49 = load i32, ptr %8, align 4
  %50 = call ptr @proto_tree_add_item(ptr noundef %46, i32 noundef %47, ptr noundef %48, i32 noundef %49, i32 noundef 1, i32 noundef -2147483648)
  %51 = load ptr, ptr %10, align 8
  call void @load_cip_request_data(ptr noundef %51, ptr noundef %19)
  %52 = load i8, ptr %16, align 1
  %53 = zext i8 %52 to i32
  %54 = and i32 %53, 128
  %55 = icmp ne i32 %54, 0
  br i1 %55, label %56, label %148

56:                                               ; preds = %5
  %57 = load ptr, ptr %7, align 8
  %58 = load i32, ptr %8, align 4
  %59 = add i32 %58, 2
  %60 = call zeroext i8 @tvb_get_uint8(ptr noundef %57, i32 noundef %59)
  store i8 %60, ptr %17, align 1
  %61 = load ptr, ptr %7, align 8
  %62 = load i32, ptr %8, align 4
  %63 = add i32 %62, 3
  %64 = call zeroext i8 @tvb_get_uint8(ptr noundef %61, i32 noundef %63)
  %65 = zext i8 %64 to i32
  %66 = mul i32 %65, 2
  %67 = trunc i32 %66 to i8
  store i8 %67, ptr %18, align 1
  %68 = load i32, ptr %9, align 4
  %69 = sub i32 %68, 4
  %70 = load i8, ptr %18, align 1
  %71 = zext i8 %70 to i32
  %72 = sub i32 %69, %71
  %73 = icmp ne i32 %72, 0
  br i1 %73, label %74, label %147

74:                                               ; preds = %56
  %75 = load ptr, ptr %6, align 8
  %76 = load ptr, ptr %7, align 8
  %77 = load i32, ptr %8, align 4
  %78 = add i32 %77, 4
  %79 = load i8, ptr %18, align 1
  %80 = zext i8 %79 to i32
  %81 = add i32 %78, %80
  %82 = load i32, ptr %9, align 4
  %83 = sub i32 %82, 4
  %84 = load i8, ptr %18, align 1
  %85 = zext i8 %84 to i32
  %86 = sub i32 %83, %85
  %87 = load i32, ptr @ett_ssupervisor_cmd_data, align 4
  %88 = call ptr @proto_tree_add_subtree(ptr noundef %75, ptr noundef %76, i32 noundef %81, i32 noundef %86, i32 noundef %87, ptr noundef %11, ptr noundef @.str.535)
  store ptr %88, ptr %14, align 8
  %89 = load i8, ptr %17, align 1
  %90 = zext i8 %89 to i32
  %91 = icmp eq i32 %90, 0
  br i1 %91, label %92, label %131

92:                                               ; preds = %74
  %93 = load i8, ptr %16, align 1
  %94 = zext i8 %93 to i32
  %95 = and i32 %94, 127
  %96 = icmp eq i32 %95, 1
  br i1 %96, label %97, label %115

97:                                               ; preds = %92
  %98 = getelementptr inbounds nuw %struct.cip_simple_request_info, ptr %19, i32 0, i32 3
  %99 = load i32, ptr %98, align 4
  %100 = icmp ne i32 %99, -1
  br i1 %100, label %101, label %115

101:                                              ; preds = %97
  %102 = getelementptr inbounds nuw %struct.cip_simple_request_info, ptr %19, i32 0, i32 3
  %103 = load i32, ptr %102, align 4
  %104 = icmp ne i32 %103, 0
  br i1 %104, label %105, label %115

105:                                              ; preds = %101
  %106 = load ptr, ptr %7, align 8
  %107 = load ptr, ptr %10, align 8
  %108 = load ptr, ptr %14, align 8
  %109 = load i32, ptr %8, align 4
  %110 = add i32 %109, 4
  %111 = load i8, ptr %18, align 1
  %112 = zext i8 %111 to i32
  %113 = add i32 %110, %112
  %114 = call i32 @dissect_cip_get_attribute_all_rsp(ptr noundef %106, ptr noundef %107, ptr noundef %108, i32 noundef %113, ptr noundef %19)
  br label %130

115:                                              ; preds = %101, %97, %92
  %116 = load ptr, ptr %14, align 8
  %117 = load i32, ptr @hf_cip_data, align 4
  %118 = load ptr, ptr %7, align 8
  %119 = load i32, ptr %8, align 4
  %120 = add i32 %119, 4
  %121 = load i8, ptr %18, align 1
  %122 = zext i8 %121 to i32
  %123 = add i32 %120, %122
  %124 = load i32, ptr %9, align 4
  %125 = sub i32 %124, 4
  %126 = load i8, ptr %18, align 1
  %127 = zext i8 %126 to i32
  %128 = sub i32 %125, %127
  %129 = call ptr @proto_tree_add_item(ptr noundef %116, i32 noundef %117, ptr noundef %118, i32 noundef %123, i32 noundef %128, i32 noundef 0)
  br label %130

130:                                              ; preds = %115, %105
  br label %146

131:                                              ; preds = %74
  %132 = load ptr, ptr %14, align 8
  %133 = load i32, ptr @hf_cip_data, align 4
  %134 = load ptr, ptr %7, align 8
  %135 = load i32, ptr %8, align 4
  %136 = add i32 %135, 4
  %137 = load i8, ptr %18, align 1
  %138 = zext i8 %137 to i32
  %139 = add i32 %136, %138
  %140 = load i32, ptr %9, align 4
  %141 = sub i32 %140, 4
  %142 = load i8, ptr %18, align 1
  %143 = zext i8 %142 to i32
  %144 = sub i32 %141, %143
  %145 = call ptr @proto_tree_add_item(ptr noundef %132, i32 noundef %133, ptr noundef %134, i32 noundef %139, i32 noundef %144, i32 noundef 0)
  br label %146

146:                                              ; preds = %131, %130
  br label %147

147:                                              ; preds = %146, %56
  br label %186

148:                                              ; preds = %5
  %149 = load ptr, ptr %7, align 8
  %150 = load i32, ptr %8, align 4
  %151 = add i32 %150, 1
  %152 = call zeroext i8 @tvb_get_uint8(ptr noundef %149, i32 noundef %151)
  %153 = zext i8 %152 to i32
  %154 = mul i32 %153, 2
  store i32 %154, ptr %15, align 4
  %155 = load i32, ptr %9, align 4
  %156 = load i32, ptr %15, align 4
  %157 = sub i32 %155, %156
  %158 = sub i32 %157, 2
  %159 = icmp ne i32 %158, 0
  br i1 %159, label %160, label %185

160:                                              ; preds = %148
  %161 = load ptr, ptr %6, align 8
  %162 = load ptr, ptr %7, align 8
  %163 = load i32, ptr %8, align 4
  %164 = add i32 %163, 2
  %165 = load i32, ptr %15, align 4
  %166 = add i32 %164, %165
  %167 = load i32, ptr %9, align 4
  %168 = load i32, ptr %15, align 4
  %169 = sub i32 %167, %168
  %170 = sub i32 %169, 2
  %171 = load i32, ptr @ett_ssupervisor_cmd_data, align 4
  %172 = call ptr @proto_tree_add_subtree(ptr noundef %161, ptr noundef %162, i32 noundef %166, i32 noundef %170, i32 noundef %171, ptr noundef null, ptr noundef @.str.535)
  store ptr %172, ptr %14, align 8
  %173 = load ptr, ptr %14, align 8
  %174 = load i32, ptr @hf_cip_data, align 4
  %175 = load ptr, ptr %7, align 8
  %176 = load i32, ptr %8, align 4
  %177 = add i32 %176, 2
  %178 = load i32, ptr %15, align 4
  %179 = add i32 %177, %178
  %180 = load i32, ptr %9, align 4
  %181 = load i32, ptr %15, align 4
  %182 = sub i32 %180, %181
  %183 = sub i32 %182, 2
  %184 = call ptr @proto_tree_add_item(ptr noundef %173, i32 noundef %174, ptr noundef %175, i32 noundef %179, i32 noundef %183, i32 noundef 0)
  br label %185

185:                                              ; preds = %160, %148
  br label %186

186:                                              ; preds = %185, %147
  %187 = load ptr, ptr %10, align 8
  %188 = load i8, ptr %16, align 1
  call void @add_cip_service_to_info_column(ptr noundef %187, i8 noundef zeroext %188, ptr noundef @cip_sc_vals_svalidator)
  call void @llvm.lifetime.end.p0(i64 36, ptr %19) #11
  call void @llvm.lifetime.end.p0(i64 1, ptr %18) #11
  call void @llvm.lifetime.end.p0(i64 1, ptr %17) #11
  call void @llvm.lifetime.end.p0(i64 1, ptr %16) #11
  call void @llvm.lifetime.end.p0(i64 4, ptr %15) #11
  call void @llvm.lifetime.end.p0(i64 8, ptr %14) #11
  call void @llvm.lifetime.end.p0(i64 8, ptr %13) #11
  call void @llvm.lifetime.end.p0(i64 8, ptr %12) #11
  call void @llvm.lifetime.end.p0(i64 8, ptr %11) #11
  ret void
}

; Function Attrs: null_pointer_is_valid sspstrong uwtable
define internal i32 @dissect_cip_class_s_validator(ptr noundef %0, ptr noundef %1, ptr noundef %2, ptr noundef %3) #0 {
  %5 = alloca ptr, align 8
  %6 = alloca ptr, align 8
  %7 = alloca ptr, align 8
  %8 = alloca ptr, align 8
  %9 = alloca ptr, align 8
  %10 = alloca ptr, align 8
  store ptr %0, ptr %5, align 8
  store ptr %1, ptr %6, align 8
  store ptr %2, ptr %7, align 8
  store ptr %3, ptr %8, align 8
  call void @llvm.lifetime.start.p0(i64 8, ptr %9) #11
  call void @llvm.lifetime.start.p0(i64 8, ptr %10) #11
  %11 = load ptr, ptr %7, align 8
  %12 = load i32, ptr @proto_cip_class_s_validator, align 4
  %13 = load ptr, ptr %5, align 8
  %14 = call ptr @proto_tree_add_item(ptr noundef %11, i32 noundef %12, ptr noundef %13, i32 noundef 0, i32 noundef -1, i32 noundef 0)
  store ptr %14, ptr %9, align 8
  %15 = load ptr, ptr %9, align 8
  %16 = load i32, ptr @ett_cip_class_s_validator, align 4
  %17 = call ptr @proto_item_add_subtree(ptr noundef %15, i32 noundef %16)
  store ptr %17, ptr %10, align 8
  %18 = load ptr, ptr %10, align 8
  %19 = load ptr, ptr %5, align 8
  %20 = load ptr, ptr %5, align 8
  %21 = call i32 @tvb_reported_length(ptr noundef %20)
  %22 = load ptr, ptr %6, align 8
  call void @dissect_cip_s_validator_data(ptr noundef %18, ptr noundef %19, i32 noundef 0, i32 noundef %21, ptr noundef %22)
  %23 = load ptr, ptr %5, align 8
  %24 = call i32 @tvb_reported_length(ptr noundef %23)
  call void @llvm.lifetime.end.p0(i64 8, ptr %10) #11
  call void @llvm.lifetime.end.p0(i64 8, ptr %9) #11
  ret i32 %24
}