; Function Attrs: null_pointer_is_valid sspstrong uwtable
define internal i32 @dissect_cip_class_s_validator(ptr noundef %0, ptr noundef %1, ptr noundef %2, ptr readnone captures(none) %3) #2 {
  %5 = alloca ptr, align 8
  %6 = alloca ptr, align 8
  %7 = alloca %struct.cip_simple_request_info, align 4
  %8 = load i32, ptr @proto_cip_class_s_validator, align 4
  %9 = tail call ptr @proto_tree_add_item(ptr noundef %2, i32 noundef %8, ptr noundef %0, i32 noundef 0, i32 noundef -1, i32 noundef 0)
  %10 = load i32, ptr @ett_cip_class_s_validator, align 4
  %11 = tail call ptr @proto_item_add_subtree(ptr noundef %9, i32 noundef %10)
  %12 = tail call i32 @tvb_reported_length(ptr noundef %0)
  call void @llvm.lifetime.start.p0(i64 8, ptr nonnull %5) #7
  call void @llvm.lifetime.start.p0(i64 8, ptr nonnull %6) #7
  call void @llvm.lifetime.start.p0(i64 36, ptr nonnull %7) #7
  %13 = getelementptr inbounds nuw i8, ptr %1, i64 8
  %14 = load ptr, ptr %13, align 8
  tail call void @col_set_str(ptr noundef %14, i32 noundef 35, ptr noundef nonnull @.str.537)
  %15 = tail call zeroext i8 @tvb_get_uint8(ptr noundef %0, i32 noundef 0)
  %16 = load i32, ptr @ett_svalidator_rrsc, align 4
  %17 = call ptr @proto_tree_add_subtree(ptr noundef %11, ptr noundef %0, i32 noundef 0, i32 noundef 1, i32 noundef %16, ptr noundef nonnull %6, ptr noundef nonnull @.str.531)
  %18 = load i32, ptr @hf_cip_reqrsp, align 4
  %19 = call ptr @proto_tree_add_item(ptr noundef %17, i32 noundef %18, ptr noundef %0, i32 noundef 0, i32 noundef 1, i32 noundef -2147483648)
  %20 = load ptr, ptr %6, align 8
  %21 = zext i8 %15 to i32
  %22 = and i32 %21, 127
  %23 = call ptr @val_to_str(i32 noundef %22, ptr noundef nonnull @cip_sc_vals_svalidator, ptr noundef nonnull @.str.533)
  %24 = lshr i32 %21, 7
  %25 = call ptr @val_to_str_const(i32 noundef %24, ptr noundef nonnull @cip_sc_rr, ptr noundef nonnull @.str.534)
  call void (ptr, ptr, ...) @proto_item_append_text(ptr noundef %20, ptr noundef nonnull @.str.532, ptr noundef %23, ptr noundef %25)
  %26 = load i32, ptr @hf_cip_svalidator_sc, align 4
  %27 = call ptr @proto_tree_add_item(ptr noundef %17, i32 noundef %26, ptr noundef %0, i32 noundef 0, i32 noundef 1, i32 noundef -2147483648)
  call void @load_cip_request_data(ptr noundef %1, ptr noundef nonnull %7)
  %.not.i = icmp sgt i8 %15, -1
  br i1 %.not.i, label %54, label %28

28:                                               ; preds = %4
  %29 = call zeroext i8 @tvb_get_uint8(ptr noundef %0, i32 noundef 2)
  %30 = call zeroext i8 @tvb_get_uint8(ptr noundef %0, i32 noundef 3)
  %31 = shl i8 %30, 1
  %32 = add i32 %12, -4
  %33 = zext i8 %31 to i32
  %34 = sub i32 %32, %33
  %.not71.i = icmp eq i32 %32, %33
  br i1 %.not71.i, label %dissect_cip_s_validator_data.exit, label %35

35:                                               ; preds = %28
  %36 = add nuw nsw i32 %33, 4
  %37 = load i32, ptr @ett_ssupervisor_cmd_data, align 4
  %38 = call ptr @proto_tree_add_subtree(ptr noundef %11, ptr noundef %0, i32 noundef %36, i32 noundef %34, i32 noundef %37, ptr noundef nonnull %5, ptr noundef nonnull @.str.535)
  %39 = icmp eq i8 %29, 0
  br i1 %39, label %40, label %51

40:                                               ; preds = %35
  %41 = icmp eq i32 %22, 1
  %42 = getelementptr inbounds nuw i8, ptr %7, i64 12
  %43 = load i32, ptr %42, align 4
  %44 = add i32 %43, -1
  %45 = icmp ult i32 %44, -2
  %or.cond5.i = select i1 %41, i1 %45, i1 false
  br i1 %or.cond5.i, label %46, label %48

46:                                               ; preds = %40
  %47 = call i32 @dissect_cip_get_attribute_all_rsp(ptr noundef %0, ptr noundef %1, ptr noundef %38, i32 noundef %36, ptr noundef nonnull %7)
  br label %dissect_cip_s_validator_data.exit

48:                                               ; preds = %40
  %49 = load i32, ptr @hf_cip_data, align 4
  %50 = call ptr @proto_tree_add_item(ptr noundef %38, i32 noundef %49, ptr noundef %0, i32 noundef %36, i32 noundef %34, i32 noundef 0)
  br label %dissect_cip_s_validator_data.exit

51:                                               ; preds = %35
  %52 = load i32, ptr @hf_cip_data, align 4
  %53 = call ptr @proto_tree_add_item(ptr noundef %38, i32 noundef %52, ptr noundef %0, i32 noundef %36, i32 noundef %34, i32 noundef 0)
  br label %dissect_cip_s_validator_data.exit

54:                                               ; preds = %4
  %55 = call zeroext i8 @tvb_get_uint8(ptr noundef %0, i32 noundef 1)
  %56 = zext i8 %55 to i32
  %57 = shl nuw nsw i32 %56, 1
  %58 = sub i32 %12, %57
  %59 = add i32 %58, -2
  %.not70.i = icmp eq i32 %59, 0
  br i1 %.not70.i, label %dissect_cip_s_validator_data.exit, label %60

60:                                               ; preds = %54
  %61 = add nuw nsw i32 %57, 2
  %62 = load i32, ptr @ett_ssupervisor_cmd_data, align 4
  %63 = call ptr @proto_tree_add_subtree(ptr noundef %11, ptr noundef %0, i32 noundef %61, i32 noundef %59, i32 noundef %62, ptr noundef null, ptr noundef nonnull @.str.535)
  %64 = load i32, ptr @hf_cip_data, align 4
  %65 = call ptr @proto_tree_add_item(ptr noundef %63, i32 noundef %64, ptr noundef %0, i32 noundef %61, i32 noundef %59, i32 noundef 0)
  br label %dissect_cip_s_validator_data.exit

dissect_cip_s_validator_data.exit:                ; preds = %28, %46, %48, %51, %54, %60
  call void @add_cip_service_to_info_column(ptr noundef %1, i8 noundef zeroext %15, ptr noundef nonnull @cip_sc_vals_svalidator)
  call void @llvm.lifetime.end.p0(i64 36, ptr nonnull %7) #7
  call void @llvm.lifetime.end.p0(i64 8, ptr nonnull %6) #7
  call void @llvm.lifetime.end.p0(i64 8, ptr nonnull %5) #7
  %66 = call i32 @tvb_reported_length(ptr noundef %0)
  ret i32 %66
}